Certificate:
    Data:
        Version: 3 (0x2)
        Serial Number:
            66:78:3e:55:a2:99:72:44:5f:5d:4e:0f:a2:74:82:f0
        Signature Algorithm: sha256WithRSAEncryption
        Issuer: CN=Easy-RSA CA
        Validity
            Not Before: Mar 25 16:13:01 2023 GMT
            Not After : Jun 27 16:13:01 2025 GMT
        Subject: CN=client1
        Subject Public Key Info:
            Public Key Algorithm: rsaEncryption
                Public-Key: (2048 bit)
                Modulus:
                    00:b9:09:ff:72:db:39:44:0f:21:d3:4f:2c:fb:6c:
                    32:16:04:8d:be:7f:48:dc:18:2b:07:4e:6a:3e:f0:
                    38:d9:4a:4c:0e:f8:f7:39:c1:73:9a:56:63:34:2d:
                    40:0a:26:ab:11:73:31:ea:18:03:f2:54:d7:e0:dd:
                    c9:8b:73:96:72:56:42:a2:73:2f:af:40:b6:4d:a1:
                    4d:05:4e:f0:d8:cb:44:61:dc:cf:2c:3e:44:7f:e0:
                    79:78:45:18:9b:68:82:f8:ff:8f:ea:c5:09:76:2f:
                    e9:dd:90:6c:43:32:b4:30:e5:42:46:8d:f1:79:7d:
                    1f:f3:bb:7e:49:85:e1:92:79:dd:ae:ac:19:e9:b9:
                    0f:1d:32:d7:5e:02:af:b4:5a:1c:a8:2e:16:c5:a5:
                    54:c1:87:ad:a8:03:e5:ff:bb:65:85:70:95:d5:a8:
                    16:2a:f4:75:ce:d0:e4:4c:e3:5c:49:24:8c:99:32:
                    7d:5e:fe:41:a7:f8:3e:18:fd:f2:fd:c5:f7:d5:8f:
                    72:82:94:74:e3:e7:b4:6f:cc:66:d8:e9:94:21:cc:
                    d5:a8:71:8f:25:01:fb:3e:24:a2:55:59:3c:54:9c:
                    c3:56:3d:5c:24:38:77:1e:ef:5c:2b:15:c3:fa:5c:
                    77:c6:e4:48:e1:8f:d7:c5:fd:c5:66:5b:55:96:1c:
                    fa:d3
                Exponent: 65537 (0x10001)
        X509v3 extensions:
            X509v3 Basic Constraints: 
                CA:FALSE
            X509v3 Subject Key Identifier: 
                1C:A6:E7:37:A2:77:E6:1B:4D:C9:81:FE:B6:87:CA:15:12:A9:D4:CC
            X509v3 Authority Key Identifier: 
                keyid:1E:B5:E5:2B:40:50:1D:18:A3:06:65:7C:B3:6E:6D:72:80:12:16:B1
                DirName:/CN=Easy-RSA CA
                serial:68:8B:7B:82:0B:5E:CD:D1:72:5D:0D:9F:6E:D3:0C:D6:F7:2A:6C:33
            X509v3 Extended Key Usage: 
                TLS Web Client Authentication
            X509v3 Key Usage: 
                Digital Signature
    Signature Algorithm: sha256WithRSAEncryption
    Signature Value:
        16:1e:70:94:2d:b8:2b:0e:fc:43:76:ff:b2:e1:97:92:ed:d1:
        82:a8:bf:ae:30:65:34:d4:6c:2f:66:bd:39:e1:28:6b:2b:fe:
        02:31:b9:df:af:0d:d0:e6:25:e5:c7:24:e0:eb:c2:73:39:0d:
        02:64:22:33:b6:30:8e:3d:8e:50:93:89:11:b7:d9:5b:df:23:
        2a:8b:3d:c6:e4:25:01:bd:49:dd:d0:87:90:93:08:68:8e:b8:
        b4:06:a5:cb:9c:68:ec:3a:73:12:80:29:0d:7f:27:e9:3e:65:
        ca:2f:a8:cb:77:13:0d:88:ac:f5:a1:f7:60:f2:41:b3:8a:70:
        4c:28:d7:dc:5a:9b:ca:e6:f0:d1:2d:b5:7b:ac:bf:a0:4c:54:
        54:cf:66:9c:93:97:1a:1c:ea:16:b0:f0:60:71:5d:cf:87:e0:
        a2:69:3c:11:d5:50:6a:a4:e3:f8:01:ee:d8:e1:35:b6:2f:bc:
        b7:16:a4:5b:30:7e:17:87:00:98:fd:bf:b8:74:87:88:df:df:
        d9:11:06:4c:9e:fe:a5:41:d1:b1:db:cc:50:4b:e8:d6:3b:50:
        fa:5a:a0:94:37:be:d3:21:90:e8:17:52:bc:00:76:f5:1d:e3:
        7d:2c:07:3c:97:f8:bb:bc:c9:b3:e4:6c:8c:f6:97:ec:af:85:
        f5:4c:ff:5d
-----BEGIN CERTIFICATE-----
MIIDVTCCAj2gAwIBAgIQZng+VaKZckRfXU4PonSC8DANBgkqhkiG9w0BAQsFADAW
MRQwEgYDVQQDDAtFYXN5LVJTQSBDQTAeFw0yMzAzMjUxNjEzMDFaFw0yNTA2Mjcx
NjEzMDFaMBIxEDAOBgNVBAMMB2NsaWVudDEwggEiMA0GCSqGSIb3DQEBAQUAA4IB
DwAwggEKAoIBAQC5Cf9y2zlEDyHTTyz7bDIWBI2+f0jcGCsHTmo+8DjZSkwO+Pc5
wXOaVmM0LUAKJqsRczHqGAPyVNfg3cmLc5ZyVkKicy+vQLZNoU0FTvDYy0Rh3M8s
PkR/4Hl4RRibaIL4/4/qxQl2L+ndkGxDMrQw5UJGjfF5fR/zu35JheGSed2urBnp
uQ8dMtdeAq+0WhyoLhbFpVTBh62oA+X/u2WFcJXVqBYq9HXO0ORM41xJJIyZMn1e
/kGn+D4Y/fL9xffVj3KClHTj57RvzGbY6ZQhzNWocY8lAfs+JKJVWTxUnMNWPVwk
OHce71wrFcP6XHfG5Ejhj9fF/cVmW1WWHPrTAgMBAAGjgaIwgZ8wCQYDVR0TBAIw
ADAdBgNVHQ4EFgQUHKbnN6J35htNyYH+tofKFRKp1MwwUQYDVR0jBEowSIAUHrXl
K0BQHRijBmV8s25tcoASFrGhGqQYMBYxFDASBgNVBAMMC0Vhc3ktUlNBIENBghRo
i3uCC17N0XJdDZ9u0wzW9ypsMzATBgNVHSUEDDAKBggrBgEFBQcDAjALBgNVHQ8E
BAMCB4AwDQYJKoZIhvcNAQELBQADggEBABYecJQtuCsO/EN2/7Lhl5Lt0YKov64w
ZTTUbC9mvTnhKGsr/gIxud+vDdDmJeXHJODrwnM5DQJkIjO2MI49jlCTiRG32Vvf
IyqLPcbkJQG9Sd3Qh5CTCGiOuLQGpcucaOw6cxKAKQ1/J+k+ZcovqMt3Ew2IrPWh
92DyQbOKcEwo19xam8rm8NEttXusv6BMVFTPZpyTlxoc6haw8GBxXc+H4KJpPBHV
UGqk4/gB7tjhNbYvvLcWpFswfheHAJj9v7h0h4jf39kRBkye/qVB0bHbzFBL6NY7
UPpaoJQ3vtMhkOgXUrwAdvUd430sBzyX+Lu8ybPkbIz2l+yvhfVM/10=
-----END CERTIFICATE-----
