Certificate:
    Data:
        Version: 3 (0x2)
        Serial Number:
            de:d8:0c:48:96:f3:b7:2f:c1:c7:82:30:fe:6e:dc:78
        Signature Algorithm: sha256WithRSAEncryption
        Issuer: CN=Easy-RSA CA
        Validity
            Not Before: Mar 25 16:11:15 2023 GMT
            Not After : Jun 27 16:11:15 2025 GMT
        Subject: CN=server
        Subject Public Key Info:
            Public Key Algorithm: rsaEncryption
                Public-Key: (2048 bit)
                Modulus:
                    00:ab:d7:fb:6b:a0:c4:c3:71:f9:1a:78:84:7a:38:
                    ef:58:be:3a:75:63:85:53:0d:90:42:71:62:9d:b1:
                    89:b8:f9:e6:30:49:37:15:7f:0d:5b:f1:32:cf:29:
                    f2:4e:2b:42:88:fc:cb:f7:b6:88:ef:44:1b:0f:5f:
                    d9:0b:7b:82:89:4d:16:29:dd:62:f1:b7:2d:1a:f8:
                    49:1a:93:ea:5f:af:20:f3:51:d8:98:3c:38:8e:45:
                    d6:89:cd:9d:88:5c:58:58:28:31:7f:df:02:d8:63:
                    f2:0d:ca:33:b8:23:5f:be:e2:2c:f2:0f:ed:d2:1c:
                    a0:96:c4:13:30:dd:c3:71:3e:19:23:af:88:e0:6c:
                    37:26:b8:a3:be:cc:64:17:74:64:72:66:c9:de:ec:
                    22:38:eb:9a:23:45:d2:56:d4:8a:c6:9b:4d:a5:34:
                    df:66:cc:5c:01:7a:4d:8b:4a:fc:6b:62:8f:9e:fc:
                    fe:4a:d5:50:5b:16:db:82:e4:20:5b:b5:aa:cf:de:
                    8d:28:e0:62:9c:f8:6f:e0:c6:c0:41:90:5f:e6:40:
                    80:b3:1e:f5:5d:2f:72:2a:8a:58:b2:33:8a:16:d4:
                    f2:59:5c:13:b0:f9:6a:c2:b9:cc:76:c7:ca:a6:ea:
                    86:6a:26:6c:ac:2a:bb:fa:9a:0f:82:63:23:a2:ad:
                    bf:ef
                Exponent: 65537 (0x10001)
        X509v3 extensions:
            X509v3 Basic Constraints: 
                CA:FALSE
            X509v3 Subject Key Identifier: 
                B6:A0:9B:F0:B9:EA:5D:4F:F5:5D:F1:E8:EE:61:9E:09:0D:42:BF:B4
            X509v3 Authority Key Identifier: 
                keyid:1E:B5:E5:2B:40:50:1D:18:A3:06:65:7C:B3:6E:6D:72:80:12:16:B1
                DirName:/CN=Easy-RSA CA
                serial:68:8B:7B:82:0B:5E:CD:D1:72:5D:0D:9F:6E:D3:0C:D6:F7:2A:6C:33
            X509v3 Extended Key Usage: 
                TLS Web Server Authentication
            X509v3 Key Usage: 
                Digital Signature, Key Encipherment
            X509v3 Subject Alternative Name: 
                DNS:server
    Signature Algorithm: sha256WithRSAEncryption
    Signature Value:
        12:b6:dc:e2:1c:2d:a3:f0:92:2f:28:82:fd:dc:5f:ae:ea:4b:
        18:2b:34:4d:d1:81:99:91:58:91:b0:ff:56:bd:75:5b:46:c9:
        1f:88:f8:8c:40:41:54:12:49:be:94:f4:8a:60:46:4d:e5:27:
        86:ed:5d:63:26:e9:1e:f8:ad:a1:2d:34:3a:4f:a3:29:3e:fd:
        9f:dd:d5:cc:dd:ce:09:da:c7:72:ab:c3:d0:c6:02:7d:4e:50:
        3f:fe:e6:83:a4:ad:37:39:27:d9:80:80:9f:56:e5:83:bd:2b:
        47:b4:68:af:13:e0:c4:2f:3e:f5:dc:22:83:06:94:27:9f:4e:
        7f:a3:d9:9d:f9:24:c4:01:62:a4:71:53:70:3e:a7:7a:6b:db:
        a2:fb:30:db:01:72:c6:55:ca:d7:9d:cb:01:83:bf:6b:d0:cc:
        ae:25:a5:94:53:b7:e3:7c:56:ee:cf:54:4f:c5:d2:aa:53:8a:
        b7:29:4b:90:4e:30:78:b1:d2:e7:9a:86:26:1c:80:b0:a9:7f:
        4d:19:6c:0d:e4:6d:54:09:38:f4:6f:51:0b:61:c4:e8:35:83:
        4d:8d:b4:37:98:40:43:0c:b4:99:fb:28:b8:ef:17:a4:5d:59:
        8a:5f:f7:8a:30:a8:26:08:9d:31:37:73:dc:60:83:2d:55:25:
        fa:bc:89:45
-----BEGIN CERTIFICATE-----
MIIDaDCCAlCgAwIBAgIRAN7YDEiW87cvwceCMP5u3HgwDQYJKoZIhvcNAQELBQAw
FjEUMBIGA1UEAwwLRWFzeS1SU0EgQ0EwHhcNMjMwMzI1MTYxMTE1WhcNMjUwNjI3
MTYxMTE1WjARMQ8wDQYDVQQDDAZzZXJ2ZXIwggEiMA0GCSqGSIb3DQEBAQUAA4IB
DwAwggEKAoIBAQCr1/troMTDcfkaeIR6OO9Yvjp1Y4VTDZBCcWKdsYm4+eYwSTcV
fw1b8TLPKfJOK0KI/Mv3tojvRBsPX9kLe4KJTRYp3WLxty0a+Ekak+pfryDzUdiY
PDiORdaJzZ2IXFhYKDF/3wLYY/INyjO4I1++4izyD+3SHKCWxBMw3cNxPhkjr4jg
bDcmuKO+zGQXdGRyZsne7CI465ojRdJW1IrGm02lNN9mzFwBek2LSvxrYo+e/P5K
1VBbFtuC5CBbtarP3o0o4GKc+G/gxsBBkF/mQICzHvVdL3IqiliyM4oW1PJZXBOw
+WrCucx2x8qm6oZqJmysKrv6mg+CYyOirb/vAgMBAAGjgbUwgbIwCQYDVR0TBAIw
ADAdBgNVHQ4EFgQUtqCb8LnqXU/1XfHo7mGeCQ1Cv7QwUQYDVR0jBEowSIAUHrXl
K0BQHRijBmV8s25tcoASFrGhGqQYMBYxFDASBgNVBAMMC0Vhc3ktUlNBIENBghRo
i3uCC17N0XJdDZ9u0wzW9ypsMzATBgNVHSUEDDAKBggrBgEFBQcDATALBgNVHQ8E
BAMCBaAwEQYDVR0RBAowCIIGc2VydmVyMA0GCSqGSIb3DQEBCwUAA4IBAQASttzi
HC2j8JIvKIL93F+u6ksYKzRN0YGZkViRsP9WvXVbRskfiPiMQEFUEkm+lPSKYEZN
5SeG7V1jJuke+K2hLTQ6T6MpPv2f3dXM3c4J2sdyq8PQxgJ9TlA//uaDpK03OSfZ
gICfVuWDvStHtGivE+DELz713CKDBpQnn05/o9md+STEAWKkcVNwPqd6a9ui+zDb
AXLGVcrXncsBg79r0MyuJaWUU7fjfFbuz1RPxdKqU4q3KUuQTjB4sdLnmoYmHICw
qX9NGWwN5G1UCTj0b1ELYcToNYNNjbQ3mEBDDLSZ+yi47xekXVmKX/eKMKgmCJ0x
N3PcYIMtVSX6vIlF
-----END CERTIFICATE-----
